target datalayout = "e-m:e-p270:32:32-p271:32:32-p272:64:64-i64:64-i128:128-f80:128-n8:16:32:64-S128"
target triple = "x86_64-unknown-linux-gnu"

%"class.std::basic_ostream" = type { ptr, %"class.std::basic_ios" }
%"class.std::basic_ios" = type { %"class.std::ios_base", ptr, i8, i8, ptr, ptr, ptr, ptr }
%"class.std::ios_base" = type { ptr, i64, i64, i32, i32, i32, ptr, %"struct.std::ios_base::_Words", [8 x %"struct.std::ios_base::_Words"], i32, ptr, %"class.std::locale" }
%"struct.std::ios_base::_Words" = type { ptr, i64 }
%"class.std::locale" = type { ptr }

@_ZL5g_ctx = internal global ptr null, align 8
@_ZL12g_orig_rules = internal global ptr null, align 8
@_ZL6g_code = internal global ptr null, align 8
@_ZL6g_ectx = internal global ptr null, align 8
@_ZSt4cout = external global %"class.std::basic_ostream", align 8

; Function Attrs: mustprogress uwtable
define internal void @_ZL18display_statisticsv() #4 {
entry:
  %0 = load ptr, ptr @_ZL5g_ctx, align 8
  %tobool = icmp ne ptr %0, null
  br i1 %tobool, label %if.then, label %if.end

if.then:                                          ; preds = %entry
  %1 = load ptr, ptr @_ZL5g_ctx, align 8
  %2 = load ptr, ptr @_ZL12g_orig_rules, align 8
  %3 = load ptr, ptr @_ZL6g_code, align 8
  %4 = load ptr, ptr @_ZL6g_ectx, align 8
  call void @_ZL18display_statisticsRSoRN7datalog7contextERNS0_8rule_setERNS0_17instruction_blockERNS0_17execution_contextEb(ptr noundef nonnull align 8 dereferenceable(8) @_ZSt4cout, ptr noundef nonnull align 8 dereferenceable(3556) %1, ptr noundef nonnull align 8 dereferenceable(248) %2, ptr noundef nonnull align 8 dereferenceable(16) %3, ptr noundef nonnull align 8 dereferenceable(108) %4, i1 noundef zeroext true)
  br label %if.end

if.end:                                           ; preds = %if.then, %entry
  ret void
}

; Function Attrs: mustprogress uwtable
define internal void @_ZL9on_ctrl_ci(i32 noundef %0) #4 {
entry:
  %.addr = alloca i32, align 4
  store i32 %0, ptr %.addr, align 4
  %call = call ptr @signal(i32 noundef 2, ptr noundef null) #3
  call void @_ZL18display_statisticsv()
  %call1 = call i32 @raise(i32 noundef 2) #3
  ret void
}