; Function Attrs: mustprogress uwtable
define internal void @_ZL9on_ctrl_ci(i32 %0) #4 {
entry:
  %call = tail call ptr @signal(i32 noundef 2, ptr noundef null) #17
  %1 = load ptr, ptr @_ZL5g_ctx, align 8
  %tobool.not.i = icmp eq ptr %1, null
  br i1 %tobool.not.i, label %_ZL18display_statisticsv.exit, label %if.then.i

if.then.i:                                        ; preds = %entry
  %2 = load ptr, ptr @_ZL12g_orig_rules, align 8
  %3 = load ptr, ptr @_ZL6g_code, align 8
  %4 = load ptr, ptr @_ZL6g_ectx, align 8
  tail call fastcc void @_ZL18display_statisticsRSoRN7datalog7contextERNS0_8rule_setERNS0_17instruction_blockERNS0_17execution_contextEb(ptr noundef nonnull align 8 dereferenceable(3556) %1, ptr noundef nonnull align 8 dereferenceable(248) %2, ptr noundef nonnull align 8 dereferenceable(16) %3, ptr noundef nonnull align 8 dereferenceable(108) %4, i1 noundef zeroext true)
  br label %_ZL18display_statisticsv.exit

_ZL18display_statisticsv.exit:                    ; preds = %entry, %if.then.i
  %call1 = tail call i32 @raise(i32 noundef 2) #17
  ret void
}